target datalayout = "e-m:e-p270:32:32-p271:32:32-p272:64:64-i64:64-i128:128-f80:128-n8:16:32:64-S128"
target triple = "x86_64-pc-linux-gnu"

@libctx = internal global ptr null, align 8
@.str.6 = private unnamed_addr constant [37 x i8] c"../openssl/test/provider_pkey_test.c\00", align 1
@.str.7 = private unnamed_addr constant [34 x i8] c"fake_rsa = fake_rsa_start(libctx)\00", align 1
@.str.8 = private unnamed_addr constant [46 x i8] c"deflt = OSSL_PROVIDER_load(libctx, \22default\22)\00", align 1
@.str.9 = private unnamed_addr constant [8 x i8] c"default\00", align 1
@.str.11 = private unnamed_addr constant [4 x i8] c"RSA\00", align 1
@.str.12 = private unnamed_addr constant [18 x i8] c"provider=fake-rsa\00", align 1
@.str.15 = private unnamed_addr constant [69 x i8] c"ctx = EVP_PKEY_CTX_new_from_name(libctx, \22RSA\22, \22provider=fake-rsa\22)\00", align 1
@.str.16 = private unnamed_addr constant [28 x i8] c"EVP_PKEY_fromdata_init(ctx)\00", align 1
@.str.22 = private unnamed_addr constant [2 x i8] c"1\00", align 1
@.str.41 = private unnamed_addr constant [32 x i8] c"params = fake_rsa_key_params(0)\00", align 1
@.str.42 = private unnamed_addr constant [64 x i8] c"EVP_PKEY_fromdata(ctx, &pkey_fake, EVP_PKEY_PUBLIC_KEY, params)\00", align 1
@.str.43 = private unnamed_addr constant [10 x i8] c"pkey_fake\00", align 1
@.str.44 = private unnamed_addr constant [68 x i8] c"ctx = EVP_PKEY_CTX_new_from_name(libctx, \22RSA\22, \22provider=default\22)\00", align 1
@.str.45 = private unnamed_addr constant [17 x i8] c"provider=default\00", align 1
@.str.46 = private unnamed_addr constant [64 x i8] c"EVP_PKEY_fromdata(ctx, &pkey_dflt, EVP_PKEY_PUBLIC_KEY, params)\00", align 1
@.str.47 = private unnamed_addr constant [10 x i8] c"pkey_dflt\00", align 1
@.str.48 = private unnamed_addr constant [34 x i8] c"EVP_PKEY_eq(pkey_fake, pkey_dflt)\00", align 1

; Function Attrs: nounwind uwtable
define internal i32 @test_pkey_eq() #0 {
  %1 = alloca i32, align 4
  %2 = alloca ptr, align 8
  %3 = alloca ptr, align 8
  %4 = alloca ptr, align 8
  %5 = alloca ptr, align 8
  %6 = alloca ptr, align 8
  %7 = alloca ptr, align 8
  %8 = alloca i32, align 4
  %9 = alloca i32, align 4
  call void @llvm.lifetime.start.p0(i64 8, ptr %2) #3
  store ptr null, ptr %2, align 8, !tbaa !9
  call void @llvm.lifetime.start.p0(i64 8, ptr %3) #3
  store ptr null, ptr %3, align 8, !tbaa !9
  call void @llvm.lifetime.start.p0(i64 8, ptr %4) #3
  store ptr null, ptr %4, align 8, !tbaa !13
  call void @llvm.lifetime.start.p0(i64 8, ptr %5) #3
  store ptr null, ptr %5, align 8, !tbaa !13
  call void @llvm.lifetime.start.p0(i64 8, ptr %6) #3
  store ptr null, ptr %6, align 8, !tbaa !15
  call void @llvm.lifetime.start.p0(i64 8, ptr %7) #3
  store ptr null, ptr %7, align 8, !tbaa !23
  call void @llvm.lifetime.start.p0(i64 4, ptr %8) #3
  store i32 0, ptr %8, align 4, !tbaa !11
  %10 = load ptr, ptr @libctx, align 8, !tbaa !4
  %11 = call ptr @fake_rsa_start(ptr noundef %10)
  store ptr %11, ptr %3, align 8, !tbaa !9
  %12 = call i32 @test_ptr(ptr noundef @.str.6, i32 noundef 191, ptr noundef @.str.7, ptr noundef %11)
  %13 = icmp ne i32 %12, 0
  br i1 %13, label %15, label %14

14:                                               ; preds = %0
  store i32 0, ptr %1, align 4
  store i32 1, ptr %9, align 4
  br label %100

15:                                               ; preds = %0
  %16 = load ptr, ptr @libctx, align 8, !tbaa !4
  %17 = call ptr @OSSL_PROVIDER_load(ptr noundef %16, ptr noundef @.str.9)
  store ptr %17, ptr %2, align 8, !tbaa !9
  %18 = call i32 @test_ptr(ptr noundef @.str.6, i32 noundef 194, ptr noundef @.str.8, ptr noundef %17)
  %19 = icmp ne i32 %18, 0
  br i1 %19, label %21, label %20

20:                                               ; preds = %15
  br label %91

21:                                               ; preds = %15
  %22 = call ptr @fake_rsa_key_params(i32 noundef 0)
  store ptr %22, ptr %7, align 8, !tbaa !23
  %23 = call i32 @test_ptr(ptr noundef @.str.6, i32 noundef 198, ptr noundef @.str.41, ptr noundef %22)
  %24 = icmp ne i32 %23, 0
  br i1 %24, label %25, label %49

25:                                               ; preds = %21
  %26 = load ptr, ptr @libctx, align 8, !tbaa !4
  %27 = call ptr @EVP_PKEY_CTX_new_from_name(ptr noundef %26, ptr noundef @.str.11, ptr noundef @.str.12)
  store ptr %27, ptr %6, align 8, !tbaa !15
  %28 = call i32 @test_ptr(ptr noundef @.str.6, i32 noundef 200, ptr noundef @.str.15, ptr noundef %27)
  %29 = icmp ne i32 %28, 0
  br i1 %29, label %30, label %49

30:                                               ; preds = %25
  %31 = load ptr, ptr %6, align 8, !tbaa !15
  %32 = call i32 @EVP_PKEY_fromdata_init(ptr noundef %31)
  %33 = icmp ne i32 %32, 0
  %34 = zext i1 %33 to i32
  %35 = call i32 @test_true(ptr noundef @.str.6, i32 noundef 201, ptr noundef @.str.16, i32 noundef %34)
  %36 = icmp ne i32 %35, 0
  br i1 %36, label %37, label %49

37:                                               ; preds = %30
  %38 = load ptr, ptr %6, align 8, !tbaa !15
  %39 = load ptr, ptr %7, align 8, !tbaa !23
  %40 = call i32 @EVP_PKEY_fromdata(ptr noundef %38, ptr noundef %4, i32 noundef 134, ptr noundef %39)
  %41 = icmp ne i32 %40, 0
  %42 = zext i1 %41 to i32
  %43 = call i32 @test_true(ptr noundef @.str.6, i32 noundef 203, ptr noundef @.str.42, i32 noundef %42)
  %44 = icmp ne i32 %43, 0
  br i1 %44, label %45, label %49

45:                                               ; preds = %37
  %46 = load ptr, ptr %4, align 8, !tbaa !13
  %47 = call i32 @test_ptr(ptr noundef @.str.6, i32 noundef 204, ptr noundef @.str.43, ptr noundef %46)
  %48 = icmp ne i32 %47, 0
  br i1 %48, label %50, label %49

49:                                               ; preds = %45, %37, %30, %25, %21
  br label %91

50:                                               ; preds = %45
  %51 = load ptr, ptr %6, align 8, !tbaa !15
  call void @EVP_PKEY_CTX_free(ptr noundef %51)
  store ptr null, ptr %6, align 8, !tbaa !15
  %52 = load ptr, ptr %7, align 8, !tbaa !23
  call void @OSSL_PARAM_free(ptr noundef %52)
  store ptr null, ptr %7, align 8, !tbaa !23
  %53 = call ptr @fake_rsa_key_params(i32 noundef 0)
  store ptr %53, ptr %7, align 8, !tbaa !23
  %54 = call i32 @test_ptr(ptr noundef @.str.6, i32 noundef 213, ptr noundef @.str.41, ptr noundef %53)
  %55 = icmp ne i32 %54, 0
  br i1 %55, label %56, label %80

56:                                               ; preds = %50
  %57 = load ptr, ptr @libctx, align 8, !tbaa !4
  %58 = call ptr @EVP_PKEY_CTX_new_from_name(ptr noundef %57, ptr noundef @.str.11, ptr noundef @.str.45)
  store ptr %58, ptr %6, align 8, !tbaa !15
  %59 = call i32 @test_ptr(ptr noundef @.str.6, i32 noundef 215, ptr noundef @.str.44, ptr noundef %58)
  %60 = icmp ne i32 %59, 0
  br i1 %60, label %61, label %80

61:                                               ; preds = %56
  %62 = load ptr, ptr %6, align 8, !tbaa !15
  %63 = call i32 @EVP_PKEY_fromdata_init(ptr noundef %62)
  %64 = icmp ne i32 %63, 0
  %65 = zext i1 %64 to i32
  %66 = call i32 @test_true(ptr noundef @.str.6, i32 noundef 216, ptr noundef @.str.16, i32 noundef %65)
  %67 = icmp ne i32 %66, 0
  br i1 %67, label %68, label %80

68:                                               ; preds = %61
  %69 = load ptr, ptr %6, align 8, !tbaa !15
  %70 = load ptr, ptr %7, align 8, !tbaa !23
  %71 = call i32 @EVP_PKEY_fromdata(ptr noundef %69, ptr noundef %5, i32 noundef 134, ptr noundef %70)
  %72 = icmp ne i32 %71, 0
  %73 = zext i1 %72 to i32
  %74 = call i32 @test_true(ptr noundef @.str.6, i32 noundef 218, ptr noundef @.str.46, i32 noundef %73)
  %75 = icmp ne i32 %74, 0
  br i1 %75, label %76, label %80

76:                                               ; preds = %68
  %77 = load ptr, ptr %5, align 8, !tbaa !13
  %78 = call i32 @test_ptr(ptr noundef @.str.6, i32 noundef 219, ptr noundef @.str.47, ptr noundef %77)
  %79 = icmp ne i32 %78, 0
  br i1 %79, label %81, label %80

80:                                               ; preds = %76, %68, %61, %56, %50
  br label %91

81:                                               ; preds = %76
  %82 = load ptr, ptr %6, align 8, !tbaa !15
  call void @EVP_PKEY_CTX_free(ptr noundef %82)
  store ptr null, ptr %6, align 8, !tbaa !15
  %83 = load ptr, ptr %7, align 8, !tbaa !23
  call void @OSSL_PARAM_free(ptr noundef %83)
  store ptr null, ptr %7, align 8, !tbaa !23
  %84 = load ptr, ptr %4, align 8, !tbaa !13
  %85 = load ptr, ptr %5, align 8, !tbaa !13
  %86 = call i32 @EVP_PKEY_eq(ptr noundef %84, ptr noundef %85)
  %87 = call i32 @test_int_eq(ptr noundef @.str.6, i32 noundef 228, ptr noundef @.str.48, ptr noundef @.str.22, i32 noundef %86, i32 noundef 1)
  %88 = icmp ne i32 %87, 0
  br i1 %88, label %90, label %89

89:                                               ; preds = %81
  br label %91

90:                                               ; preds = %81
  store i32 1, ptr %8, align 4, !tbaa !11
  br label %91

91:                                               ; preds = %90, %89, %80, %49, %20
  %92 = load ptr, ptr %3, align 8, !tbaa !9
  call void @fake_rsa_finish(ptr noundef %92)
  %93 = load ptr, ptr %2, align 8, !tbaa !9
  %94 = call i32 @OSSL_PROVIDER_unload(ptr noundef %93)
  %95 = load ptr, ptr %6, align 8, !tbaa !15
  call void @EVP_PKEY_CTX_free(ptr noundef %95)
  %96 = load ptr, ptr %4, align 8, !tbaa !13
  call void @EVP_PKEY_free(ptr noundef %96)
  %97 = load ptr, ptr %5, align 8, !tbaa !13
  call void @EVP_PKEY_free(ptr noundef %97)
  %98 = load ptr, ptr %7, align 8, !tbaa !23
  call void @OSSL_PARAM_free(ptr noundef %98)
  %99 = load i32, ptr %8, align 4, !tbaa !11
  store i32 %99, ptr %1, align 4
  store i32 1, ptr %9, align 4
  br label %100

100:                                              ; preds = %91, %14
  call void @llvm.lifetime.end.p0(i64 4, ptr %8) #3
  call void @llvm.lifetime.end.p0(i64 8, ptr %7) #3
  call void @llvm.lifetime.end.p0(i64 8, ptr %6) #3
  call void @llvm.lifetime.end.p0(i64 8, ptr %5) #3
  call void @llvm.lifetime.end.p0(i64 8, ptr %4) #3
  call void @llvm.lifetime.end.p0(i64 8, ptr %3) #3
  call void @llvm.lifetime.end.p0(i64 8, ptr %2) #3
  %101 = load i32, ptr %1, align 4
  ret i32 %101
}