; Function Attrs: nounwind uwtable
define internal range(i32 0, 2) i32 @test_pkey_eq() #0 {
  %1 = alloca ptr, align 8
  %2 = alloca ptr, align 8
  call void @llvm.lifetime.start.p0(i64 8, ptr nonnull %1) #3
  store ptr null, ptr %1, align 8, !tbaa !9
  call void @llvm.lifetime.start.p0(i64 8, ptr nonnull %2) #3
  store ptr null, ptr %2, align 8, !tbaa !9
  %3 = load ptr, ptr @libctx, align 8, !tbaa !4
  %4 = tail call ptr @fake_rsa_start(ptr noundef %3) #3
  %5 = tail call i32 @test_ptr(ptr noundef nonnull @.str.6, i32 noundef 191, ptr noundef nonnull @.str.7, ptr noundef %4) #3
  %.not = icmp eq i32 %5, 0
  br i1 %.not, label %59, label %6

6:                                                ; preds = %0
  %7 = load ptr, ptr @libctx, align 8, !tbaa !4
  %8 = tail call ptr @OSSL_PROVIDER_load(ptr noundef %7, ptr noundef nonnull @.str.9) #3
  %9 = tail call i32 @test_ptr(ptr noundef nonnull @.str.6, i32 noundef 194, ptr noundef nonnull @.str.8, ptr noundef %8) #3
  %.not18 = icmp eq i32 %9, 0
  br i1 %.not18, label %55, label %10

10:                                               ; preds = %6
  %11 = tail call ptr @fake_rsa_key_params(i32 noundef 0) #3
  %12 = tail call i32 @test_ptr(ptr noundef nonnull @.str.6, i32 noundef 198, ptr noundef nonnull @.str.41, ptr noundef %11) #3
  %.not19 = icmp eq i32 %12, 0
  br i1 %.not19, label %55, label %13

13:                                               ; preds = %10
  %14 = load ptr, ptr @libctx, align 8, !tbaa !4
  %15 = tail call ptr @EVP_PKEY_CTX_new_from_name(ptr noundef %14, ptr noundef nonnull @.str.11, ptr noundef nonnull @.str.12) #3
  %16 = tail call i32 @test_ptr(ptr noundef nonnull @.str.6, i32 noundef 200, ptr noundef nonnull @.str.15, ptr noundef %15) #3
  %.not20 = icmp eq i32 %16, 0
  br i1 %.not20, label %55, label %17

17:                                               ; preds = %13
  %18 = tail call i32 @EVP_PKEY_fromdata_init(ptr noundef %15) #3
  %19 = icmp ne i32 %18, 0
  %20 = zext i1 %19 to i32
  %21 = tail call i32 @test_true(ptr noundef nonnull @.str.6, i32 noundef 201, ptr noundef nonnull @.str.16, i32 noundef %20) #3
  %.not21 = icmp eq i32 %21, 0
  br i1 %.not21, label %55, label %22

22:                                               ; preds = %17
  %23 = call i32 @EVP_PKEY_fromdata(ptr noundef %15, ptr noundef nonnull %1, i32 noundef 134, ptr noundef %11) #3
  %24 = icmp ne i32 %23, 0
  %25 = zext i1 %24 to i32
  %26 = call i32 @test_true(ptr noundef nonnull @.str.6, i32 noundef 203, ptr noundef nonnull @.str.42, i32 noundef %25) #3
  %.not22 = icmp eq i32 %26, 0
  br i1 %.not22, label %55, label %27

27:                                               ; preds = %22
  %28 = load ptr, ptr %1, align 8, !tbaa !9
  %29 = call i32 @test_ptr(ptr noundef nonnull @.str.6, i32 noundef 204, ptr noundef nonnull @.str.43, ptr noundef %28) #3
  %.not23 = icmp eq i32 %29, 0
  br i1 %.not23, label %55, label %30

30:                                               ; preds = %27
  call void @EVP_PKEY_CTX_free(ptr noundef %15) #3
  call void @OSSL_PARAM_free(ptr noundef %11) #3
  %31 = call ptr @fake_rsa_key_params(i32 noundef 0) #3
  %32 = call i32 @test_ptr(ptr noundef nonnull @.str.6, i32 noundef 213, ptr noundef nonnull @.str.41, ptr noundef %31) #3
  %.not24 = icmp eq i32 %32, 0
  br i1 %.not24, label %55, label %33

33:                                               ; preds = %30
  %34 = load ptr, ptr @libctx, align 8, !tbaa !4
  %35 = call ptr @EVP_PKEY_CTX_new_from_name(ptr noundef %34, ptr noundef nonnull @.str.11, ptr noundef nonnull @.str.45) #3
  %36 = call i32 @test_ptr(ptr noundef nonnull @.str.6, i32 noundef 215, ptr noundef nonnull @.str.44, ptr noundef %35) #3
  %.not25 = icmp eq i32 %36, 0
  br i1 %.not25, label %55, label %37

37:                                               ; preds = %33
  %38 = call i32 @EVP_PKEY_fromdata_init(ptr noundef %35) #3
  %39 = icmp ne i32 %38, 0
  %40 = zext i1 %39 to i32
  %41 = call i32 @test_true(ptr noundef nonnull @.str.6, i32 noundef 216, ptr noundef nonnull @.str.16, i32 noundef %40) #3
  %.not26 = icmp eq i32 %41, 0
  br i1 %.not26, label %55, label %42

42:                                               ; preds = %37
  %43 = call i32 @EVP_PKEY_fromdata(ptr noundef %35, ptr noundef nonnull %2, i32 noundef 134, ptr noundef %31) #3
  %44 = icmp ne i32 %43, 0
  %45 = zext i1 %44 to i32
  %46 = call i32 @test_true(ptr noundef nonnull @.str.6, i32 noundef 218, ptr noundef nonnull @.str.46, i32 noundef %45) #3
  %.not27 = icmp eq i32 %46, 0
  br i1 %.not27, label %55, label %47

47:                                               ; preds = %42
  %48 = load ptr, ptr %2, align 8, !tbaa !9
  %49 = call i32 @test_ptr(ptr noundef nonnull @.str.6, i32 noundef 219, ptr noundef nonnull @.str.47, ptr noundef %48) #3
  %.not28 = icmp eq i32 %49, 0
  br i1 %.not28, label %55, label %50

50:                                               ; preds = %47
  call void @EVP_PKEY_CTX_free(ptr noundef %35) #3
  call void @OSSL_PARAM_free(ptr noundef %31) #3
  %51 = load ptr, ptr %1, align 8, !tbaa !9
  %52 = load ptr, ptr %2, align 8, !tbaa !9
  %53 = call i32 @EVP_PKEY_eq(ptr noundef %51, ptr noundef %52) #3
  %54 = call i32 @test_int_eq(ptr noundef nonnull @.str.6, i32 noundef 228, ptr noundef nonnull @.str.48, ptr noundef nonnull @.str.22, i32 noundef %53, i32 noundef 1) #3
  %.not29 = icmp ne i32 %54, 0
  %spec.select = zext i1 %.not29 to i32
  br label %55

55:                                               ; preds = %50, %30, %33, %37, %42, %47, %10, %13, %17, %22, %27, %6
  %.016 = phi ptr [ %35, %47 ], [ %35, %42 ], [ %35, %37 ], [ %35, %33 ], [ null, %30 ], [ %15, %27 ], [ %15, %22 ], [ %15, %17 ], [ %15, %13 ], [ null, %10 ], [ null, %6 ], [ null, %50 ]
  %.015 = phi ptr [ %31, %47 ], [ %31, %42 ], [ %31, %37 ], [ %31, %33 ], [ %31, %30 ], [ %11, %27 ], [ %11, %22 ], [ %11, %17 ], [ %11, %13 ], [ %11, %10 ], [ null, %6 ], [ null, %50 ]
  %.0 = phi i32 [ 0, %47 ], [ 0, %42 ], [ 0, %37 ], [ 0, %33 ], [ 0, %30 ], [ 0, %27 ], [ 0, %22 ], [ 0, %17 ], [ 0, %13 ], [ 0, %10 ], [ 0, %6 ], [ %spec.select, %50 ]
  call void @fake_rsa_finish(ptr noundef %4) #3
  %56 = call i32 @OSSL_PROVIDER_unload(ptr noundef %8) #3
  call void @EVP_PKEY_CTX_free(ptr noundef %.016) #3
  %57 = load ptr, ptr %1, align 8, !tbaa !9
  call void @EVP_PKEY_free(ptr noundef %57) #3
  %58 = load ptr, ptr %2, align 8, !tbaa !9
  call void @EVP_PKEY_free(ptr noundef %58) #3
  call void @OSSL_PARAM_free(ptr noundef %.015) #3
  br label %59

59:                                               ; preds = %0, %55
  %.017 = phi i32 [ %.0, %55 ], [ 0, %0 ]
  call void @llvm.lifetime.end.p0(i64 8, ptr nonnull %2) #3
  call void @llvm.lifetime.end.p0(i64 8, ptr nonnull %1) #3
  ret i32 %.017
}